; Function Attrs: nofree norecurse nosync nounwind memory(read, inaccessiblemem: none) uwtable
define range(i32 0, 2) i32 @Fra_SmlCheckNonConstOutputs(ptr noundef readonly captures(none) %0) local_unnamed_addr #0 {
  %2 = load ptr, ptr %0, align 8, !tbaa !85
  %3 = getelementptr i8, ptr %2, i64 140
  %.val10 = load i32, ptr %3, align 4, !tbaa !28
  %4 = getelementptr i8, ptr %2, i64 104
  %.val = load i32, ptr %4, align 8, !tbaa !39
  %5 = sub nsw i32 %.val10, %.val
  %6 = icmp sgt i32 %5, 0
  br i1 %6, label %.lr.ph, label %.critedge

.lr.ph:                                           ; preds = %1
  %7 = getelementptr inbounds nuw i8, ptr %2, i64 24
  %8 = load ptr, ptr %7, align 8, !tbaa !80
  %9 = getelementptr i8, ptr %8, i64 8
  %.val9 = load ptr, ptr %9, align 8, !tbaa !51
  %10 = getelementptr inbounds nuw i8, ptr %0, i64 40
  %11 = getelementptr inbounds nuw i8, ptr %0, i64 20
  %12 = load i32, ptr %11, align 4, !tbaa !25
  %13 = getelementptr inbounds nuw i8, ptr %0, i64 24
  %14 = load i32, ptr %13, align 8, !tbaa !27
  %15 = icmp slt i32 %14, %12
  %16 = sext i32 %14 to i64
  br i1 %15, label %.lr.ph.preheader.i.us.preheader, label %.critedge

.lr.ph.preheader.i.us.preheader:                  ; preds = %.lr.ph
  %wide.trip.count = zext nneg i32 %5 to i64
  br label %.lr.ph.preheader.i.us

.lr.ph.preheader.i.us:                            ; preds = %.lr.ph.preheader.i.us.preheader, %.loopexit.us
  %indvars.iv = phi i64 [ 0, %.lr.ph.preheader.i.us.preheader ], [ %indvars.iv.next, %.loopexit.us ]
  %17 = getelementptr inbounds nuw ptr, ptr %.val9, i64 %indvars.iv
  %18 = load ptr, ptr %17, align 8, !tbaa !65
  %19 = getelementptr inbounds nuw i8, ptr %18, i64 36
  %20 = load i32, ptr %19, align 4, !tbaa !22
  %21 = mul nsw i32 %12, %20
  %22 = sext i32 %21 to i64
  %23 = getelementptr inbounds i32, ptr %10, i64 %22
  br label %.lr.ph.i.us

.lr.ph.i.us:                                      ; preds = %26, %.lr.ph.preheader.i.us
  %indvars.iv.i.us = phi i64 [ %16, %.lr.ph.preheader.i.us ], [ %indvars.iv.next.i.us, %26 ]
  %24 = getelementptr inbounds i32, ptr %23, i64 %indvars.iv.i.us
  %25 = load i32, ptr %24, align 4, !tbaa !28
  %.not.i.us = icmp eq i32 %25, 0
  br i1 %.not.i.us, label %26, label %.critedge

26:                                               ; preds = %.lr.ph.i.us
  %indvars.iv.next.i.us = add nsw i64 %indvars.iv.i.us, 1
  %lftr.wideiv.i.us = trunc i64 %indvars.iv.next.i.us to i32
  %exitcond.not.i.us = icmp eq i32 %12, %lftr.wideiv.i.us
  br i1 %exitcond.not.i.us, label %.loopexit.us, label %.lr.ph.i.us, !llvm.loop !34

.loopexit.us:                                     ; preds = %26
  %indvars.iv.next = add nuw nsw i64 %indvars.iv, 1
  %exitcond.not = icmp eq i64 %indvars.iv.next, %wide.trip.count
  br i1 %exitcond.not, label %.critedge, label %.lr.ph.preheader.i.us, !llvm.loop !109

.critedge:                                        ; preds = %.loopexit.us, %.lr.ph.i.us, %.lr.ph, %1
  %.08 = phi i32 [ 0, %1 ], [ 0, %.lr.ph ], [ 1, %.lr.ph.i.us ], [ 0, %.loopexit.us ]
  ret i32 %.08
}